target datalayout = "e-m:e-p270:32:32-p271:32:32-p272:64:64-i64:64-i128:128-f80:128-n8:16:32:64-S128"
target triple = "x86_64-pc-linux-gnu"

%struct.lv_area_t = type { i32, i32, i32, i32 }
%struct._lv_obj_t = type { ptr, ptr, ptr, ptr, ptr, %struct.lv_area_t, i32, i16, i16 }
%union.lv_style_value_t = type { ptr }

; Function Attrs: inlinehint nounwind uwtable
define internal i32 @lv_obj_get_style_pad_bottom(ptr noundef %0, i32 noundef %1) #3 {
  %3 = alloca ptr, align 8
  %4 = alloca i32, align 4
  %5 = alloca %union.lv_style_value_t, align 8
  store ptr %0, ptr %3, align 8, !tbaa !3
  store i32 %1, ptr %4, align 4, !tbaa !21
  call void @llvm.lifetime.start.p0(i64 8, ptr %5) #6
  %6 = load ptr, ptr %3, align 8, !tbaa !3
  %7 = load i32, ptr %4, align 4, !tbaa !21
  %8 = call ptr @lv_obj_get_style_prop(ptr noundef %6, i32 noundef %7, i8 noundef zeroext 17)
  %9 = getelementptr inbounds nuw %union.lv_style_value_t, ptr %5, i32 0, i32 0
  store ptr %8, ptr %9, align 8
  %10 = load i32, ptr %5, align 8, !tbaa !46
  call void @llvm.lifetime.end.p0(i64 8, ptr %5) #6
  ret i32 %10
}

; Function Attrs: inlinehint nounwind uwtable
define internal i32 @lv_obj_get_style_pad_top(ptr noundef %0, i32 noundef %1) #3 {
  %3 = alloca ptr, align 8
  %4 = alloca i32, align 4
  %5 = alloca %union.lv_style_value_t, align 8
  store ptr %0, ptr %3, align 8, !tbaa !3
  store i32 %1, ptr %4, align 4, !tbaa !21
  call void @llvm.lifetime.start.p0(i64 8, ptr %5) #6
  %6 = load ptr, ptr %3, align 8, !tbaa !3
  %7 = load i32, ptr %4, align 4, !tbaa !21
  %8 = call ptr @lv_obj_get_style_prop(ptr noundef %6, i32 noundef %7, i8 noundef zeroext 16)
  %9 = getelementptr inbounds nuw %union.lv_style_value_t, ptr %5, i32 0, i32 0
  store ptr %8, ptr %9, align 8
  %10 = load i32, ptr %5, align 8, !tbaa !46
  call void @llvm.lifetime.end.p0(i64 8, ptr %5) #6
  ret i32 %10
}

; Function Attrs: inlinehint nounwind uwtable
define internal i32 @lv_obj_get_style_pad_right(ptr noundef %0, i32 noundef %1) #3 {
  %3 = alloca ptr, align 8
  %4 = alloca i32, align 4
  %5 = alloca %union.lv_style_value_t, align 8
  store ptr %0, ptr %3, align 8, !tbaa !3
  store i32 %1, ptr %4, align 4, !tbaa !21
  call void @llvm.lifetime.start.p0(i64 8, ptr %5) #6
  %6 = load ptr, ptr %3, align 8, !tbaa !3
  %7 = load i32, ptr %4, align 4, !tbaa !21
  %8 = call ptr @lv_obj_get_style_prop(ptr noundef %6, i32 noundef %7, i8 noundef zeroext 19)
  %9 = getelementptr inbounds nuw %union.lv_style_value_t, ptr %5, i32 0, i32 0
  store ptr %8, ptr %9, align 8
  %10 = load i32, ptr %5, align 8, !tbaa !46
  call void @llvm.lifetime.end.p0(i64 8, ptr %5) #6
  ret i32 %10
}

; Function Attrs: inlinehint nounwind uwtable
define internal i32 @lv_obj_get_style_pad_left(ptr noundef %0, i32 noundef %1) #3 {
  %3 = alloca ptr, align 8
  %4 = alloca i32, align 4
  %5 = alloca %union.lv_style_value_t, align 8
  store ptr %0, ptr %3, align 8, !tbaa !3
  store i32 %1, ptr %4, align 4, !tbaa !21
  call void @llvm.lifetime.start.p0(i64 8, ptr %5) #6
  %6 = load ptr, ptr %3, align 8, !tbaa !3
  %7 = load i32, ptr %4, align 4, !tbaa !21
  %8 = call ptr @lv_obj_get_style_prop(ptr noundef %6, i32 noundef %7, i8 noundef zeroext 18)
  %9 = getelementptr inbounds nuw %union.lv_style_value_t, ptr %5, i32 0, i32 0
  store ptr %8, ptr %9, align 8
  %10 = load i32, ptr %5, align 8, !tbaa !46
  call void @llvm.lifetime.end.p0(i64 8, ptr %5) #6
  ret i32 %10
}

; Function Attrs: nounwind uwtable
define internal i32 @elastic_diff(ptr noundef %0, i32 noundef %1, i32 noundef %2, i32 noundef %3, i32 noundef %4) #0 {
  %6 = alloca i32, align 4
  %7 = alloca ptr, align 8
  %8 = alloca i32, align 4
  %9 = alloca i32, align 4
  %10 = alloca i32, align 4
  %11 = alloca i32, align 4
  %12 = alloca i32, align 4
  %13 = alloca i8, align 1
  %14 = alloca i8, align 1
  %15 = alloca i32, align 4
  %16 = alloca i32, align 4
  %17 = alloca i32, align 4
  %18 = alloca i32, align 4
  %19 = alloca i32, align 4
  %20 = alloca i32, align 4
  %21 = alloca i32, align 4
  %22 = alloca i32, align 4
  %23 = alloca i32, align 4
  store ptr %0, ptr %7, align 8, !tbaa !3
  store i32 %1, ptr %8, align 4, !tbaa !21
  store i32 %2, ptr %9, align 4, !tbaa !21
  store i32 %3, ptr %10, align 4, !tbaa !21
  store i32 %4, ptr %11, align 4, !tbaa !21
  %24 = load ptr, ptr %7, align 8, !tbaa !3
  %25 = call zeroext i1 @lv_obj_has_flag(ptr noundef %24, i32 noundef 32)
  br i1 %25, label %42, label %26

26:                                               ; preds = %5
  %27 = load i32, ptr %10, align 4, !tbaa !21
  %28 = load i32, ptr %8, align 4, !tbaa !21
  %29 = add nsw i32 %27, %28
  %30 = icmp slt i32 %29, 0
  br i1 %30, label %31, label %34

31:                                               ; preds = %26
  %32 = load i32, ptr %10, align 4, !tbaa !21
  %33 = sub nsw i32 0, %32
  store i32 %33, ptr %8, align 4, !tbaa !21
  br label %34

34:                                               ; preds = %31, %26
  %35 = load i32, ptr %9, align 4, !tbaa !21
  %36 = load i32, ptr %8, align 4, !tbaa !21
  %37 = sub nsw i32 %35, %36
  %38 = icmp slt i32 %37, 0
  br i1 %38, label %39, label %41

39:                                               ; preds = %34
  %40 = load i32, ptr %9, align 4, !tbaa !21
  store i32 %40, ptr %8, align 4, !tbaa !21
  br label %41

41:                                               ; preds = %39, %34
  br label %218

42:                                               ; preds = %5
  call void @llvm.lifetime.start.p0(i64 4, ptr %12) #6
  %43 = load i32, ptr %11, align 4, !tbaa !21
  %44 = icmp eq i32 %43, 3
  br i1 %44, label %45, label %48

45:                                               ; preds = %42
  %46 = load ptr, ptr %7, align 8, !tbaa !3
  %47 = call i32 @lv_obj_get_scroll_snap_x(ptr noundef %46)
  br label %51

48:                                               ; preds = %42
  %49 = load ptr, ptr %7, align 8, !tbaa !3
  %50 = call i32 @lv_obj_get_scroll_snap_y(ptr noundef %49)
  br label %51

51:                                               ; preds = %48, %45
  %52 = phi i32 [ %47, %45 ], [ %50, %48 ]
  store i32 %52, ptr %12, align 4, !tbaa !21
  call void @llvm.lifetime.start.p0(i64 1, ptr %13) #6
  store i8 0, ptr %13, align 1, !tbaa !27
  call void @llvm.lifetime.start.p0(i64 1, ptr %14) #6
  store i8 0, ptr %14, align 1, !tbaa !27
  %53 = load i32, ptr %12, align 4, !tbaa !21
  %54 = icmp eq i32 %53, 0
  br i1 %54, label %55, label %77

55:                                               ; preds = %51
  %56 = load i32, ptr %10, align 4, !tbaa !21
  %57 = icmp slt i32 %56, 0
  br i1 %57, label %61, label %58

58:                                               ; preds = %55
  %59 = load i32, ptr %9, align 4, !tbaa !21
  %60 = icmp slt i32 %59, 0
  br i1 %60, label %61, label %76

61:                                               ; preds = %58, %55
  %62 = load i32, ptr %8, align 4, !tbaa !21
  %63 = icmp slt i32 %62, 0
  br i1 %63, label %64, label %67

64:                                               ; preds = %61
  %65 = load i32, ptr %8, align 4, !tbaa !21
  %66 = sub nsw i32 %65, 2
  store i32 %66, ptr %8, align 4, !tbaa !21
  br label %67

67:                                               ; preds = %64, %61
  %68 = load i32, ptr %8, align 4, !tbaa !21
  %69 = icmp sgt i32 %68, 0
  br i1 %69, label %70, label %73

70:                                               ; preds = %67
  %71 = load i32, ptr %8, align 4, !tbaa !21
  %72 = add nsw i32 %71, 2
  store i32 %72, ptr %8, align 4, !tbaa !21
  br label %73

73:                                               ; preds = %70, %67
  %74 = load i32, ptr %8, align 4, !tbaa !21
  %75 = sdiv i32 %74, 4
  store i32 %75, ptr %8, align 4, !tbaa !21
  br label %76

76:                                               ; preds = %73, %58
  br label %194

77:                                               ; preds = %51
  %78 = load i32, ptr %11, align 4, !tbaa !21
  %79 = icmp eq i32 %78, 3
  br i1 %79, label %80, label %137

80:                                               ; preds = %77
  call void @llvm.lifetime.start.p0(i64 4, ptr %15) #6
  store i32 0, ptr %15, align 4, !tbaa !21
  %81 = load i32, ptr %12, align 4, !tbaa !21
  switch i32 %81, label %120 [
    i32 3, label %82
    i32 1, label %104
    i32 2, label %112
  ]

82:                                               ; preds = %80
  call void @llvm.lifetime.start.p0(i64 4, ptr %16) #6
  %83 = load ptr, ptr %7, align 8, !tbaa !3
  %84 = call i32 @lv_obj_get_style_pad_left(ptr noundef %83, i32 noundef 0)
  store i32 %84, ptr %16, align 4, !tbaa !21
  call void @llvm.lifetime.start.p0(i64 4, ptr %17) #6
  %85 = load ptr, ptr %7, align 8, !tbaa !3
  %86 = call i32 @lv_obj_get_style_pad_right(ptr noundef %85, i32 noundef 0)
  store i32 %86, ptr %17, align 4, !tbaa !21
  %87 = load ptr, ptr %7, align 8, !tbaa !3
  %88 = getelementptr inbounds nuw %struct._lv_obj_t, ptr %87, i32 0, i32 5
  %89 = getelementptr inbounds nuw %struct.lv_area_t, ptr %88, i32 0, i32 0
  %90 = load i32, ptr %89, align 8, !tbaa !42
  store i32 %90, ptr %15, align 4, !tbaa !21
  %91 = load ptr, ptr %7, align 8, !tbaa !3
  %92 = getelementptr inbounds nuw %struct._lv_obj_t, ptr %91, i32 0, i32 5
  %93 = call i32 @lv_area_get_width(ptr noundef %92)
  %94 = load i32, ptr %16, align 4, !tbaa !21
  %95 = sub nsw i32 %93, %94
  %96 = load i32, ptr %17, align 4, !tbaa !21
  %97 = sub nsw i32 %95, %96
  %98 = sdiv i32 %97, 2
  %99 = load i32, ptr %15, align 4, !tbaa !21
  %100 = add nsw i32 %99, %98
  store i32 %100, ptr %15, align 4, !tbaa !21
  %101 = load i32, ptr %16, align 4, !tbaa !21
  %102 = load i32, ptr %15, align 4, !tbaa !21
  %103 = add nsw i32 %102, %101
  store i32 %103, ptr %15, align 4, !tbaa !21
  call void @llvm.lifetime.end.p0(i64 4, ptr %17) #6
  call void @llvm.lifetime.end.p0(i64 4, ptr %16) #6
  br label %121

104:                                              ; preds = %80
  %105 = load ptr, ptr %7, align 8, !tbaa !3
  %106 = getelementptr inbounds nuw %struct._lv_obj_t, ptr %105, i32 0, i32 5
  %107 = getelementptr inbounds nuw %struct.lv_area_t, ptr %106, i32 0, i32 0
  %108 = load i32, ptr %107, align 8, !tbaa !42
  %109 = load ptr, ptr %7, align 8, !tbaa !3
  %110 = call i32 @lv_obj_get_style_pad_left(ptr noundef %109, i32 noundef 0)
  %111 = add nsw i32 %108, %110
  store i32 %111, ptr %15, align 4, !tbaa !21
  br label %121

112:                                              ; preds = %80
  %113 = load ptr, ptr %7, align 8, !tbaa !3
  %114 = getelementptr inbounds nuw %struct._lv_obj_t, ptr %113, i32 0, i32 5
  %115 = getelementptr inbounds nuw %struct.lv_area_t, ptr %114, i32 0, i32 2
  %116 = load i32, ptr %115, align 8, !tbaa !45
  %117 = load ptr, ptr %7, align 8, !tbaa !3
  %118 = call i32 @lv_obj_get_style_pad_right(ptr noundef %117, i32 noundef 0)
  %119 = sub nsw i32 %116, %118
  store i32 %119, ptr %15, align 4, !tbaa !21
  br label %121

120:                                              ; preds = %80
  br label %121

121:                                              ; preds = %120, %112, %104, %82
  call void @llvm.lifetime.start.p0(i64 4, ptr %18) #6
  %122 = load ptr, ptr %7, align 8, !tbaa !3
  %123 = load i32, ptr %15, align 4, !tbaa !21
  %124 = add nsw i32 %123, 1
  %125 = call i32 @find_snap_point_x(ptr noundef %122, i32 noundef %124, i32 noundef 536870911, i32 noundef 0)
  store i32 %125, ptr %18, align 4, !tbaa !21
  %126 = load i32, ptr %18, align 4, !tbaa !21
  %127 = icmp eq i32 %126, 536870911
  br i1 %127, label %128, label %129

128:                                              ; preds = %121
  store i8 1, ptr %14, align 1, !tbaa !27
  br label %129

129:                                              ; preds = %128, %121
  %130 = load ptr, ptr %7, align 8, !tbaa !3
  %131 = load i32, ptr %15, align 4, !tbaa !21
  %132 = call i32 @find_snap_point_x(ptr noundef %130, i32 noundef -536870911, i32 noundef %131, i32 noundef 0)
  store i32 %132, ptr %18, align 4, !tbaa !21
  %133 = load i32, ptr %18, align 4, !tbaa !21
  %134 = icmp eq i32 %133, 536870911
  br i1 %134, label %135, label %136

135:                                              ; preds = %129
  store i8 1, ptr %13, align 1, !tbaa !27
  br label %136

136:                                              ; preds = %135, %129
  call void @llvm.lifetime.end.p0(i64 4, ptr %18) #6
  call void @llvm.lifetime.end.p0(i64 4, ptr %15) #6
  br label %193

137:                                              ; preds = %77
  call void @llvm.lifetime.start.p0(i64 4, ptr %19) #6
  store i32 0, ptr %19, align 4, !tbaa !21
  %138 = load i32, ptr %12, align 4, !tbaa !21
  switch i32 %138, label %177 [
    i32 3, label %139
    i32 1, label %161
    i32 2, label %169
  ]

139:                                              ; preds = %137
  call void @llvm.lifetime.start.p0(i64 4, ptr %20) #6
  %140 = load ptr, ptr %7, align 8, !tbaa !3
  %141 = call i32 @lv_obj_get_style_pad_top(ptr noundef %140, i32 noundef 0)
  store i32 %141, ptr %20, align 4, !tbaa !21
  call void @llvm.lifetime.start.p0(i64 4, ptr %21) #6
  %142 = load ptr, ptr %7, align 8, !tbaa !3
  %143 = call i32 @lv_obj_get_style_pad_bottom(ptr noundef %142, i32 noundef 0)
  store i32 %143, ptr %21, align 4, !tbaa !21
  %144 = load ptr, ptr %7, align 8, !tbaa !3
  %145 = getelementptr inbounds nuw %struct._lv_obj_t, ptr %144, i32 0, i32 5
  %146 = getelementptr inbounds nuw %struct.lv_area_t, ptr %145, i32 0, i32 1
  %147 = load i32, ptr %146, align 4, !tbaa !37
  store i32 %147, ptr %19, align 4, !tbaa !21
  %148 = load ptr, ptr %7, align 8, !tbaa !3
  %149 = getelementptr inbounds nuw %struct._lv_obj_t, ptr %148, i32 0, i32 5
  %150 = call i32 @lv_area_get_height(ptr noundef %149)
  %151 = load i32, ptr %20, align 4, !tbaa !21
  %152 = sub nsw i32 %150, %151
  %153 = load i32, ptr %21, align 4, !tbaa !21
  %154 = sub nsw i32 %152, %153
  %155 = sdiv i32 %154, 2
  %156 = load i32, ptr %19, align 4, !tbaa !21
  %157 = add nsw i32 %156, %155
  store i32 %157, ptr %19, align 4, !tbaa !21
  %158 = load i32, ptr %20, align 4, !tbaa !21
  %159 = load i32, ptr %19, align 4, !tbaa !21
  %160 = add nsw i32 %159, %158
  store i32 %160, ptr %19, align 4, !tbaa !21
  call void @llvm.lifetime.end.p0(i64 4, ptr %21) #6
  call void @llvm.lifetime.end.p0(i64 4, ptr %20) #6
  br label %178

161:                                              ; preds = %137
  %162 = load ptr, ptr %7, align 8, !tbaa !3
  %163 = getelementptr inbounds nuw %struct._lv_obj_t, ptr %162, i32 0, i32 5
  %164 = getelementptr inbounds nuw %struct.lv_area_t, ptr %163, i32 0, i32 1
  %165 = load i32, ptr %164, align 4, !tbaa !37
  %166 = load ptr, ptr %7, align 8, !tbaa !3
  %167 = call i32 @lv_obj_get_style_pad_top(ptr noundef %166, i32 noundef 0)
  %168 = add nsw i32 %165, %167
  store i32 %168, ptr %19, align 4, !tbaa !21
  br label %178

169:                                              ; preds = %137
  %170 = load ptr, ptr %7, align 8, !tbaa !3
  %171 = getelementptr inbounds nuw %struct._lv_obj_t, ptr %170, i32 0, i32 5
  %172 = getelementptr inbounds nuw %struct.lv_area_t, ptr %171, i32 0, i32 3
  %173 = load i32, ptr %172, align 4, !tbaa !41
  %174 = load ptr, ptr %7, align 8, !tbaa !3
  %175 = call i32 @lv_obj_get_style_pad_bottom(ptr noundef %174, i32 noundef 0)
  %176 = sub nsw i32 %173, %175
  store i32 %176, ptr %19, align 4, !tbaa !21
  br label %178

177:                                              ; preds = %137
  br label %178

178:                                              ; preds = %177, %169, %161, %139
  call void @llvm.lifetime.start.p0(i64 4, ptr %22) #6
  %179 = load ptr, ptr %7, align 8, !tbaa !3
  %180 = load i32, ptr %19, align 4, !tbaa !21
  %181 = call i32 @find_snap_point_y(ptr noundef %179, i32 noundef %180, i32 noundef 536870911, i32 noundef 0)
  store i32 %181, ptr %22, align 4, !tbaa !21
  %182 = load i32, ptr %22, align 4, !tbaa !21
  %183 = icmp eq i32 %182, 536870911
  br i1 %183, label %184, label %185

184:                                              ; preds = %178
  store i8 1, ptr %14, align 1, !tbaa !27
  br label %185

185:                                              ; preds = %184, %178
  %186 = load ptr, ptr %7, align 8, !tbaa !3
  %187 = load i32, ptr %19, align 4, !tbaa !21
  %188 = call i32 @find_snap_point_y(ptr noundef %186, i32 noundef -536870911, i32 noundef %187, i32 noundef 0)
  store i32 %188, ptr %22, align 4, !tbaa !21
  %189 = load i32, ptr %22, align 4, !tbaa !21
  %190 = icmp eq i32 %189, 536870911
  br i1 %190, label %191, label %192

191:                                              ; preds = %185
  store i8 1, ptr %13, align 1, !tbaa !27
  br label %192

192:                                              ; preds = %191, %185
  call void @llvm.lifetime.end.p0(i64 4, ptr %22) #6
  call void @llvm.lifetime.end.p0(i64 4, ptr %19) #6
  br label %193

193:                                              ; preds = %192, %136
  br label %194

194:                                              ; preds = %193, %76
  %195 = load i8, ptr %13, align 1, !tbaa !27, !range !32, !noundef !33
  %196 = trunc i8 %195 to i1
  br i1 %196, label %200, label %197

197:                                              ; preds = %194
  %198 = load i8, ptr %14, align 1, !tbaa !27, !range !32, !noundef !33
  %199 = trunc i8 %198 to i1
  br i1 %199, label %200, label %215

200:                                              ; preds = %197, %194
  %201 = load i32, ptr %8, align 4, !tbaa !21
  %202 = icmp slt i32 %201, 0
  br i1 %202, label %203, label %206

203:                                              ; preds = %200
  %204 = load i32, ptr %8, align 4, !tbaa !21
  %205 = sub nsw i32 %204, 2
  store i32 %205, ptr %8, align 4, !tbaa !21
  br label %206

206:                                              ; preds = %203, %200
  %207 = load i32, ptr %8, align 4, !tbaa !21
  %208 = icmp sgt i32 %207, 0
  br i1 %208, label %209, label %212

209:                                              ; preds = %206
  %210 = load i32, ptr %8, align 4, !tbaa !21
  %211 = add nsw i32 %210, 2
  store i32 %211, ptr %8, align 4, !tbaa !21
  br label %212

212:                                              ; preds = %209, %206
  %213 = load i32, ptr %8, align 4, !tbaa !21
  %214 = sdiv i32 %213, 4
  store i32 %214, ptr %6, align 4
  store i32 1, ptr %23, align 4
  br label %217

215:                                              ; preds = %197
  %216 = load i32, ptr %8, align 4, !tbaa !21
  store i32 %216, ptr %6, align 4
  store i32 1, ptr %23, align 4
  br label %217

217:                                              ; preds = %215, %212
  call void @llvm.lifetime.end.p0(i64 1, ptr %14) #6
  call void @llvm.lifetime.end.p0(i64 1, ptr %13) #6
  call void @llvm.lifetime.end.p0(i64 4, ptr %12) #6
  br label %220

218:                                              ; preds = %41
  %219 = load i32, ptr %8, align 4, !tbaa !21
  store i32 %219, ptr %6, align 4
  br label %220

220:                                              ; preds = %218, %217
  %221 = load i32, ptr %6, align 4
  ret i32 %221
}