; Function Attrs: nounwind uwtable
define internal fastcc i32 @elastic_diff(ptr noundef nonnull %0, i32 noundef %1, i32 noundef %2, i32 noundef %3, i32 noundef range(i32 3, 13) %4) unnamed_addr #0 {
  %6 = tail call zeroext i1 @lv_obj_has_flag(ptr noundef nonnull %0, i32 noundef 32) #5
  br i1 %6, label %11, label %7

7:                                                ; preds = %5
  %8 = add nsw i32 %3, %1
  %9 = icmp slt i32 %8, 0
  %10 = sub nsw i32 0, %3
  %spec.select = select i1 %9, i32 %10, i32 %1
  %.170 = tail call i32 @llvm.smin.i32(i32 %2, i32 %spec.select)
  br label %93

11:                                               ; preds = %5
  %12 = icmp eq i32 %4, 3
  br i1 %12, label %13, label %.thread

13:                                               ; preds = %11
  %14 = tail call i32 @lv_obj_get_scroll_snap_x(ptr noundef nonnull %0) #5
  switch i32 %14, label %49 [
    i32 0, label %16
    i32 3, label %24
    i32 1, label %37
    i32 2, label %43
  ]

.thread:                                          ; preds = %11
  %15 = tail call i32 @lv_obj_get_scroll_snap_y(ptr noundef nonnull %0) #5
  switch i32 %15, label %81 [
    i32 0, label %16
    i32 3, label %55
    i32 1, label %69
    i32 2, label %75
  ]

16:                                               ; preds = %.thread, %13
  %17 = or i32 %3, %2
  %or.cond.not = icmp sgt i32 %17, -1
  br i1 %or.cond.not, label %86, label %18

18:                                               ; preds = %16
  %19 = icmp slt i32 %1, 0
  %20 = add nsw i32 %1, -2
  %spec.select82 = select i1 %19, i32 %20, i32 %1
  %21 = icmp sgt i32 %spec.select82, 0
  %22 = add nuw nsw i32 %spec.select82, 2
  %.3 = select i1 %21, i32 %22, i32 %spec.select82
  %23 = sdiv i32 %.3, 4
  br label %86

24:                                               ; preds = %13
  %25 = tail call ptr @lv_obj_get_style_prop(ptr noundef nonnull %0, i32 noundef 0, i8 noundef zeroext 18) #5
  %26 = ptrtoint ptr %25 to i64
  %.sroa.0.0.extract.trunc.i = trunc i64 %26 to i32
  %27 = tail call ptr @lv_obj_get_style_prop(ptr noundef nonnull %0, i32 noundef 0, i8 noundef zeroext 19) #5
  %28 = ptrtoint ptr %27 to i64
  %.sroa.0.0.extract.trunc.i84 = trunc i64 %28 to i32
  %29 = getelementptr inbounds nuw i8, ptr %0, i64 40
  %30 = load i32, ptr %29, align 8, !tbaa !23
  %31 = tail call i32 @lv_area_get_width(ptr noundef nonnull %29) #5
  %32 = add i32 %.sroa.0.0.extract.trunc.i84, %.sroa.0.0.extract.trunc.i
  %33 = sub i32 %31, %32
  %34 = sdiv i32 %33, 2
  %35 = add i32 %30, %.sroa.0.0.extract.trunc.i
  %36 = add i32 %35, %34
  br label %49

37:                                               ; preds = %13
  %38 = getelementptr inbounds nuw i8, ptr %0, i64 40
  %39 = load i32, ptr %38, align 8, !tbaa !23
  %40 = tail call ptr @lv_obj_get_style_prop(ptr noundef nonnull %0, i32 noundef 0, i8 noundef zeroext 18) #5
  %41 = ptrtoint ptr %40 to i64
  %.sroa.0.0.extract.trunc.i85 = trunc i64 %41 to i32
  %42 = add nsw i32 %39, %.sroa.0.0.extract.trunc.i85
  br label %49

43:                                               ; preds = %13
  %44 = getelementptr inbounds nuw i8, ptr %0, i64 48
  %45 = load i32, ptr %44, align 8, !tbaa !26
  %46 = tail call ptr @lv_obj_get_style_prop(ptr noundef nonnull %0, i32 noundef 0, i8 noundef zeroext 19) #5
  %47 = ptrtoint ptr %46 to i64
  %.sroa.0.0.extract.trunc.i86 = trunc i64 %47 to i32
  %48 = sub nsw i32 %45, %.sroa.0.0.extract.trunc.i86
  br label %49

49:                                               ; preds = %13, %43, %37, %24
  %.078 = phi i32 [ %48, %43 ], [ %42, %37 ], [ %36, %24 ], [ 0, %13 ]
  %50 = add nsw i32 %.078, 1
  %51 = tail call fastcc i32 @find_snap_point_x(ptr noundef nonnull %0, i32 noundef %50, i32 noundef 536870911, i32 noundef 0)
  %52 = icmp eq i32 %51, 536870911
  %53 = tail call fastcc i32 @find_snap_point_x(ptr noundef nonnull %0, i32 noundef -536870911, i32 noundef %.078, i32 noundef 0)
  %54 = icmp eq i32 %53, 536870911
  br label %86

55:                                               ; preds = %.thread
  %56 = tail call ptr @lv_obj_get_style_prop(ptr noundef nonnull %0, i32 noundef 0, i8 noundef zeroext 16) #5
  %57 = ptrtoint ptr %56 to i64
  %.sroa.0.0.extract.trunc.i87 = trunc i64 %57 to i32
  %58 = tail call ptr @lv_obj_get_style_prop(ptr noundef nonnull %0, i32 noundef 0, i8 noundef zeroext 17) #5
  %59 = ptrtoint ptr %58 to i64
  %.sroa.0.0.extract.trunc.i88 = trunc i64 %59 to i32
  %60 = getelementptr inbounds nuw i8, ptr %0, i64 40
  %61 = getelementptr inbounds nuw i8, ptr %0, i64 44
  %62 = load i32, ptr %61, align 4, !tbaa !18
  %63 = tail call i32 @lv_area_get_height(ptr noundef nonnull %60) #5
  %64 = add i32 %.sroa.0.0.extract.trunc.i88, %.sroa.0.0.extract.trunc.i87
  %65 = sub i32 %63, %64
  %66 = sdiv i32 %65, 2
  %67 = add i32 %62, %.sroa.0.0.extract.trunc.i87
  %68 = add i32 %67, %66
  br label %81

69:                                               ; preds = %.thread
  %70 = getelementptr inbounds nuw i8, ptr %0, i64 44
  %71 = load i32, ptr %70, align 4, !tbaa !18
  %72 = tail call ptr @lv_obj_get_style_prop(ptr noundef nonnull %0, i32 noundef 0, i8 noundef zeroext 16) #5
  %73 = ptrtoint ptr %72 to i64
  %.sroa.0.0.extract.trunc.i89 = trunc i64 %73 to i32
  %74 = add nsw i32 %71, %.sroa.0.0.extract.trunc.i89
  br label %81

75:                                               ; preds = %.thread
  %76 = getelementptr inbounds nuw i8, ptr %0, i64 52
  %77 = load i32, ptr %76, align 4, !tbaa !21
  %78 = tail call ptr @lv_obj_get_style_prop(ptr noundef nonnull %0, i32 noundef 0, i8 noundef zeroext 17) #5
  %79 = ptrtoint ptr %78 to i64
  %.sroa.0.0.extract.trunc.i90 = trunc i64 %79 to i32
  %80 = sub nsw i32 %77, %.sroa.0.0.extract.trunc.i90
  br label %81

81:                                               ; preds = %.thread, %75, %69, %55
  %.071 = phi i32 [ %80, %75 ], [ %74, %69 ], [ %68, %55 ], [ 0, %.thread ]
  %82 = tail call fastcc i32 @find_snap_point_y(ptr noundef nonnull %0, i32 noundef %.071, i32 noundef 536870911, i32 noundef 0)
  %83 = icmp eq i32 %82, 536870911
  %84 = tail call fastcc i32 @find_snap_point_y(ptr noundef nonnull %0, i32 noundef -536870911, i32 noundef %.071, i32 noundef 0)
  %85 = icmp eq i32 %84, 536870911
  br label %86

86:                                               ; preds = %49, %81, %18, %16
  %.075 = phi i1 [ false, %18 ], [ false, %16 ], [ %52, %49 ], [ %83, %81 ]
  %.072 = phi i1 [ false, %18 ], [ false, %16 ], [ %54, %49 ], [ %85, %81 ]
  %.4 = phi i32 [ %23, %18 ], [ %1, %16 ], [ %1, %49 ], [ %1, %81 ]
  %brmerge = select i1 %.072, i1 true, i1 %.075
  br i1 %brmerge, label %87, label %93

87:                                               ; preds = %86
  %88 = icmp slt i32 %.4, 0
  %89 = add nsw i32 %.4, -2
  %spec.select83 = select i1 %88, i32 %89, i32 %.4
  %90 = icmp sgt i32 %spec.select83, 0
  %91 = add nuw nsw i32 %spec.select83, 2
  %.6 = select i1 %90, i32 %91, i32 %spec.select83
  %92 = sdiv i32 %.6, 4
  br label %93

93:                                               ; preds = %87, %86, %7
  %.1 = phi i32 [ %.170, %7 ], [ %92, %87 ], [ %.4, %86 ]
  ret i32 %.1
}